target datalayout = "e-m:e-p270:32:32-p271:32:32-p272:64:64-i64:64-i128:128-f80:128-n8:16:32:64-S128"
target triple = "x86_64-pc-linux-gnu"

%struct.wl_list = type { ptr, ptr }
%struct.SDL_WaylandPenTool = type { i32, %struct.SDL_PenInfo, ptr, ptr, float, float, i8, [7 x float], i32, i32, [3 x i32], %struct.wl_list }
%struct.SDL_PenInfo = type { i32, float, i32, i32, i32 }
%union.anon.21 = type { double }

; Function Attrs: inlinehint nounwind uwtable
define internal double @wl_fixed_to_double(i32 noundef %0) #2 {
  %2 = alloca i32, align 4
  %3 = alloca %union.anon.21, align 8
  store i32 %0, ptr %2, align 4
  call void @llvm.lifetime.start.p0(i64 8, ptr %3) #10
  %4 = load i32, ptr %2, align 4
  %5 = sext i32 %4 to i64
  %6 = add nsw i64 4807592602218004480, %5
  store i64 %6, ptr %3, align 8
  %7 = load double, ptr %3, align 8
  %8 = fsub double %7, 0x42B8000000000000
  call void @llvm.lifetime.end.p0(i64 8, ptr %3) #10
  ret double %8
}

; Function Attrs: nounwind uwtable
define internal void @tablet_tool_handle_tilt(ptr noundef %0, ptr noundef %1, i32 noundef %2, i32 noundef %3) #0 {
  %5 = alloca ptr, align 8
  %6 = alloca ptr, align 8
  %7 = alloca i32, align 4
  %8 = alloca i32, align 4
  %9 = alloca ptr, align 8
  store ptr %0, ptr %5, align 8
  store ptr %1, ptr %6, align 8
  store i32 %2, ptr %7, align 4
  store i32 %3, ptr %8, align 4
  call void @llvm.lifetime.start.p0(i64 8, ptr %9) #10
  %10 = load ptr, ptr %5, align 8
  store ptr %10, ptr %9, align 8
  %11 = load i32, ptr %7, align 4
  %12 = call double @wl_fixed_to_double(i32 noundef %11)
  %13 = fptrunc double %12 to float
  %14 = load ptr, ptr %9, align 8
  %15 = getelementptr inbounds nuw %struct.SDL_WaylandPenTool, ptr %14, i32 0, i32 7
  %16 = getelementptr inbounds [7 x float], ptr %15, i64 0, i64 1
  store float %13, ptr %16, align 4
  %17 = load i32, ptr %8, align 4
  %18 = call double @wl_fixed_to_double(i32 noundef %17)
  %19 = fptrunc double %18 to float
  %20 = load ptr, ptr %9, align 8
  %21 = getelementptr inbounds nuw %struct.SDL_WaylandPenTool, ptr %20, i32 0, i32 7
  %22 = getelementptr inbounds [7 x float], ptr %21, i64 0, i64 2
  store float %19, ptr %22, align 4
  %23 = load ptr, ptr %9, align 8
  %24 = getelementptr inbounds nuw %struct.SDL_WaylandPenTool, ptr %23, i32 0, i32 8
  %25 = load i32, ptr %24, align 8
  %26 = or i32 %25, 6
  store i32 %26, ptr %24, align 8
  call void @llvm.lifetime.end.p0(i64 8, ptr %9) #10
  ret void
}