; Function Attrs: mustprogress nofree norecurse nosync nounwind willreturn memory(argmem: readwrite) uwtable
define internal void @tablet_tool_handle_tilt(ptr noundef captures(none) initializes((56, 64)) %0, ptr readnone captures(none) %1, i32 noundef %2, i32 noundef %3) #8 {
  %5 = sext i32 %2 to i64
  %6 = add nsw i64 %5, 4807592602218004480
  %7 = bitcast i64 %6 to double
  %8 = fadd double %7, 0xC2B8000000000000
  %9 = fptrunc double %8 to float
  %10 = getelementptr inbounds nuw i8, ptr %0, i64 56
  store float %9, ptr %10, align 4
  %11 = sext i32 %3 to i64
  %12 = add nsw i64 %11, 4807592602218004480
  %13 = bitcast i64 %12 to double
  %14 = fadd double %13, 0xC2B8000000000000
  %15 = fptrunc double %14 to float
  %16 = getelementptr inbounds nuw i8, ptr %0, i64 60
  store float %15, ptr %16, align 4
  %17 = getelementptr inbounds nuw i8, ptr %0, i64 80
  %18 = load i32, ptr %17, align 8
  %19 = or i32 %18, 6
  store i32 %19, ptr %17, align 8
  ret void
}